; Function Attrs: mustprogress uwtable
define void @_ZN19PacketRangeGroupBox26on_ftlMarkedButton_toggledEb(ptr noundef nonnull align 8 dereferenceable(60) %0, i1 noundef zeroext %1) local_unnamed_addr #0 align 2 {
  br i1 %1, label %3, label %_ZN19PacketRangeGroupBox20processButtonToggledEb14packet_range_e.exit

3:                                                ; preds = %2
  %4 = getelementptr inbounds i8, ptr %0, i64 48
  %5 = load ptr, ptr %4, align 8
  %.not.i = icmp eq ptr %5, null
  br i1 %.not.i, label %_ZN19PacketRangeGroupBox20processButtonToggledEb14packet_range_e.exit, label %6

6:                                                ; preds = %3
  store i32 3, ptr %5, align 8
  br label %_ZN19PacketRangeGroupBox20processButtonToggledEb14packet_range_e.exit

_ZN19PacketRangeGroupBox20processButtonToggledEb14packet_range_e.exit: ; preds = %2, %3, %6
  tail call void @_ZN19PacketRangeGroupBox12updateCountsEv(ptr noundef nonnull align 8 dereferenceable(60) %0)
  ret void
}